target datalayout = "e-m:e-p270:32:32-p271:32:32-p272:64:64-i64:64-i128:128-f80:128-n8:16:32:64-S128"
target triple = "x86_64-pc-linux-gnu"

%struct.AVFilterContext = type { ptr, ptr, ptr, ptr, ptr, i32, ptr, ptr, i32, ptr, ptr, i32, i32, ptr, ptr, ptr, ptr, i32, ptr, i32, i32 }
%struct.DedotContext = type { ptr, i32, float, float, float, float, ptr, i32, i32, i32, i32, i32, i32, i32, i32, i32, [4 x i32], [4 x i32], [5 x ptr], ptr, ptr }
%struct.AVRational = type { i32, i32 }
%struct.AVChannelLayout = type { i32, i32, %union.anon.1, ptr }
%union.anon.1 = type { i64 }
%struct.AVFilterLink = type { ptr, ptr, ptr, ptr, i32, i32, i32, i32, %struct.AVRational, i32, i32, i32, %struct.AVChannelLayout, %struct.AVRational, ptr, i32, %struct.AVFilterFormatsConfig, %struct.AVFilterFormatsConfig }
%struct.AVFilterFormatsConfig = type { ptr, ptr, ptr, ptr, ptr }
%struct.AVPixFmtDescriptor = type { ptr, i8, i8, i8, i64, [4 x %struct.AVComponentDescriptor], ptr }
%struct.AVComponentDescriptor = type { i32, i32, i32, i32, i32 }

; Function Attrs: nounwind uwtable
define internal i32 @config_output(ptr noundef %0) #1 {
  %2 = alloca i32, align 4
  %3 = alloca ptr, align 8
  %4 = alloca ptr, align 8
  %5 = alloca ptr, align 8
  %6 = alloca ptr, align 8
  %7 = alloca i32, align 4
  store ptr %0, ptr %3, align 8, !tbaa !28
  call void @llvm.lifetime.start.p0(i64 8, ptr %4) #7
  %8 = load ptr, ptr %3, align 8, !tbaa !28
  %9 = getelementptr inbounds nuw %struct.AVFilterLink, ptr %8, i32 0, i32 0
  %10 = load ptr, ptr %9, align 8, !tbaa !56
  store ptr %10, ptr %4, align 8, !tbaa !4
  call void @llvm.lifetime.start.p0(i64 8, ptr %5) #7
  %11 = load ptr, ptr %4, align 8, !tbaa !4
  %12 = getelementptr inbounds nuw %struct.AVFilterContext, ptr %11, i32 0, i32 9
  %13 = load ptr, ptr %12, align 8, !tbaa !9
  store ptr %13, ptr %5, align 8, !tbaa !22
  call void @llvm.lifetime.start.p0(i64 8, ptr %6) #7
  %14 = load ptr, ptr %4, align 8, !tbaa !4
  %15 = getelementptr inbounds nuw %struct.AVFilterContext, ptr %14, i32 0, i32 4
  %16 = load ptr, ptr %15, align 8, !tbaa !27
  %17 = getelementptr inbounds ptr, ptr %16, i64 0
  %18 = load ptr, ptr %17, align 8, !tbaa !28
  store ptr %18, ptr %6, align 8, !tbaa !28
  %19 = load ptr, ptr %3, align 8, !tbaa !28
  %20 = getelementptr inbounds nuw %struct.AVFilterLink, ptr %19, i32 0, i32 5
  %21 = load i32, ptr %20, align 4, !tbaa !61
  %22 = call ptr @av_pix_fmt_desc_get(i32 noundef %21)
  %23 = load ptr, ptr %5, align 8, !tbaa !22
  %24 = getelementptr inbounds nuw %struct.DedotContext, ptr %23, i32 0, i32 6
  store ptr %22, ptr %24, align 8, !tbaa !62
  %25 = load ptr, ptr %5, align 8, !tbaa !22
  %26 = getelementptr inbounds nuw %struct.DedotContext, ptr %25, i32 0, i32 6
  %27 = load ptr, ptr %26, align 8, !tbaa !62
  %28 = icmp ne ptr %27, null
  br i1 %28, label %30, label %29

29:                                               ; preds = %1
  store i32 -558323010, ptr %2, align 4
  store i32 1, ptr %7, align 4
  br label %224

30:                                               ; preds = %1
  %31 = load ptr, ptr %3, align 8, !tbaa !28
  %32 = getelementptr inbounds nuw %struct.AVFilterLink, ptr %31, i32 0, i32 5
  %33 = load i32, ptr %32, align 4, !tbaa !61
  %34 = call i32 @av_pix_fmt_count_planes(i32 noundef %33)
  %35 = load ptr, ptr %5, align 8, !tbaa !22
  %36 = getelementptr inbounds nuw %struct.DedotContext, ptr %35, i32 0, i32 15
  store i32 %34, ptr %36, align 8, !tbaa !63
  %37 = load ptr, ptr %5, align 8, !tbaa !22
  %38 = getelementptr inbounds nuw %struct.DedotContext, ptr %37, i32 0, i32 6
  %39 = load ptr, ptr %38, align 8, !tbaa !62
  %40 = getelementptr inbounds nuw %struct.AVPixFmtDescriptor, ptr %39, i32 0, i32 5
  %41 = getelementptr inbounds [4 x %struct.AVComponentDescriptor], ptr %40, i64 0, i64 0
  %42 = getelementptr inbounds nuw %struct.AVComponentDescriptor, ptr %41, i32 0, i32 4
  %43 = load i32, ptr %42, align 8, !tbaa !64
  %44 = load ptr, ptr %5, align 8, !tbaa !22
  %45 = getelementptr inbounds nuw %struct.DedotContext, ptr %44, i32 0, i32 7
  store i32 %43, ptr %45, align 8, !tbaa !66
  %46 = load ptr, ptr %5, align 8, !tbaa !22
  %47 = getelementptr inbounds nuw %struct.DedotContext, ptr %46, i32 0, i32 7
  %48 = load i32, ptr %47, align 8, !tbaa !66
  %49 = shl i32 1, %48
  %50 = sub nsw i32 %49, 1
  %51 = load ptr, ptr %5, align 8, !tbaa !22
  %52 = getelementptr inbounds nuw %struct.DedotContext, ptr %51, i32 0, i32 8
  store i32 %50, ptr %52, align 4, !tbaa !67
  %53 = load ptr, ptr %5, align 8, !tbaa !22
  %54 = getelementptr inbounds nuw %struct.DedotContext, ptr %53, i32 0, i32 2
  %55 = load float, ptr %54, align 4, !tbaa !68
  %56 = load ptr, ptr %5, align 8, !tbaa !22
  %57 = getelementptr inbounds nuw %struct.DedotContext, ptr %56, i32 0, i32 8
  %58 = load i32, ptr %57, align 4, !tbaa !67
  %59 = sitofp i32 %58 to float
  %60 = fmul nsz float %55, %59
  %61 = fptosi float %60 to i32
  %62 = load ptr, ptr %5, align 8, !tbaa !22
  %63 = getelementptr inbounds nuw %struct.DedotContext, ptr %62, i32 0, i32 9
  store i32 %61, ptr %63, align 8, !tbaa !69
  %64 = load ptr, ptr %5, align 8, !tbaa !22
  %65 = getelementptr inbounds nuw %struct.DedotContext, ptr %64, i32 0, i32 3
  %66 = load float, ptr %65, align 8, !tbaa !70
  %67 = load ptr, ptr %5, align 8, !tbaa !22
  %68 = getelementptr inbounds nuw %struct.DedotContext, ptr %67, i32 0, i32 8
  %69 = load i32, ptr %68, align 4, !tbaa !67
  %70 = sitofp i32 %69 to float
  %71 = fmul nsz float %66, %70
  %72 = fptosi float %71 to i32
  %73 = load ptr, ptr %5, align 8, !tbaa !22
  %74 = getelementptr inbounds nuw %struct.DedotContext, ptr %73, i32 0, i32 10
  store i32 %72, ptr %74, align 4, !tbaa !71
  %75 = load ptr, ptr %5, align 8, !tbaa !22
  %76 = getelementptr inbounds nuw %struct.DedotContext, ptr %75, i32 0, i32 4
  %77 = load float, ptr %76, align 4, !tbaa !72
  %78 = load ptr, ptr %5, align 8, !tbaa !22
  %79 = getelementptr inbounds nuw %struct.DedotContext, ptr %78, i32 0, i32 8
  %80 = load i32, ptr %79, align 4, !tbaa !67
  %81 = sitofp i32 %80 to float
  %82 = fmul nsz float %77, %81
  %83 = fptosi float %82 to i32
  %84 = load ptr, ptr %5, align 8, !tbaa !22
  %85 = getelementptr inbounds nuw %struct.DedotContext, ptr %84, i32 0, i32 11
  store i32 %83, ptr %85, align 8, !tbaa !73
  %86 = load ptr, ptr %5, align 8, !tbaa !22
  %87 = getelementptr inbounds nuw %struct.DedotContext, ptr %86, i32 0, i32 5
  %88 = load float, ptr %87, align 8, !tbaa !74
  %89 = load ptr, ptr %5, align 8, !tbaa !22
  %90 = getelementptr inbounds nuw %struct.DedotContext, ptr %89, i32 0, i32 8
  %91 = load i32, ptr %90, align 4, !tbaa !67
  %92 = sitofp i32 %91 to float
  %93 = fmul nsz float %88, %92
  %94 = fptosi float %93 to i32
  %95 = load ptr, ptr %5, align 8, !tbaa !22
  %96 = getelementptr inbounds nuw %struct.DedotContext, ptr %95, i32 0, i32 12
  store i32 %94, ptr %96, align 4, !tbaa !75
  %97 = load ptr, ptr %5, align 8, !tbaa !22
  %98 = getelementptr inbounds nuw %struct.DedotContext, ptr %97, i32 0, i32 6
  %99 = load ptr, ptr %98, align 8, !tbaa !62
  %100 = getelementptr inbounds nuw %struct.AVPixFmtDescriptor, ptr %99, i32 0, i32 2
  %101 = load i8, ptr %100, align 1, !tbaa !76
  %102 = call i1 @llvm.is.constant.i8(i8 %101)
  br i1 %102, label %116, label %103

103:                                              ; preds = %30
  %104 = load ptr, ptr %6, align 8, !tbaa !28
  %105 = getelementptr inbounds nuw %struct.AVFilterLink, ptr %104, i32 0, i32 6
  %106 = load i32, ptr %105, align 8, !tbaa !78
  %107 = sub nsw i32 0, %106
  %108 = load ptr, ptr %5, align 8, !tbaa !22
  %109 = getelementptr inbounds nuw %struct.DedotContext, ptr %108, i32 0, i32 6
  %110 = load ptr, ptr %109, align 8, !tbaa !62
  %111 = getelementptr inbounds nuw %struct.AVPixFmtDescriptor, ptr %110, i32 0, i32 2
  %112 = load i8, ptr %111, align 1, !tbaa !76
  %113 = zext i8 %112 to i32
  %114 = ashr i32 %107, %113
  %115 = sub nsw i32 0, %114
  br label %136

116:                                              ; preds = %30
  %117 = load ptr, ptr %6, align 8, !tbaa !28
  %118 = getelementptr inbounds nuw %struct.AVFilterLink, ptr %117, i32 0, i32 6
  %119 = load i32, ptr %118, align 8, !tbaa !78
  %120 = load ptr, ptr %5, align 8, !tbaa !22
  %121 = getelementptr inbounds nuw %struct.DedotContext, ptr %120, i32 0, i32 6
  %122 = load ptr, ptr %121, align 8, !tbaa !62
  %123 = getelementptr inbounds nuw %struct.AVPixFmtDescriptor, ptr %122, i32 0, i32 2
  %124 = load i8, ptr %123, align 1, !tbaa !76
  %125 = zext i8 %124 to i32
  %126 = shl i32 1, %125
  %127 = add nsw i32 %119, %126
  %128 = sub nsw i32 %127, 1
  %129 = load ptr, ptr %5, align 8, !tbaa !22
  %130 = getelementptr inbounds nuw %struct.DedotContext, ptr %129, i32 0, i32 6
  %131 = load ptr, ptr %130, align 8, !tbaa !62
  %132 = getelementptr inbounds nuw %struct.AVPixFmtDescriptor, ptr %131, i32 0, i32 2
  %133 = load i8, ptr %132, align 1, !tbaa !76
  %134 = zext i8 %133 to i32
  %135 = ashr i32 %128, %134
  br label %136

136:                                              ; preds = %116, %103
  %137 = phi i32 [ %115, %103 ], [ %135, %116 ]
  %138 = load ptr, ptr %5, align 8, !tbaa !22
  %139 = getelementptr inbounds nuw %struct.DedotContext, ptr %138, i32 0, i32 16
  %140 = getelementptr inbounds [4 x i32], ptr %139, i64 0, i64 2
  store i32 %137, ptr %140, align 4, !tbaa !24
  %141 = load ptr, ptr %5, align 8, !tbaa !22
  %142 = getelementptr inbounds nuw %struct.DedotContext, ptr %141, i32 0, i32 16
  %143 = getelementptr inbounds [4 x i32], ptr %142, i64 0, i64 1
  store i32 %137, ptr %143, align 4, !tbaa !24
  %144 = load ptr, ptr %6, align 8, !tbaa !28
  %145 = getelementptr inbounds nuw %struct.AVFilterLink, ptr %144, i32 0, i32 6
  %146 = load i32, ptr %145, align 8, !tbaa !78
  %147 = load ptr, ptr %5, align 8, !tbaa !22
  %148 = getelementptr inbounds nuw %struct.DedotContext, ptr %147, i32 0, i32 16
  %149 = getelementptr inbounds [4 x i32], ptr %148, i64 0, i64 3
  store i32 %146, ptr %149, align 4, !tbaa !24
  %150 = load ptr, ptr %5, align 8, !tbaa !22
  %151 = getelementptr inbounds nuw %struct.DedotContext, ptr %150, i32 0, i32 16
  %152 = getelementptr inbounds [4 x i32], ptr %151, i64 0, i64 0
  store i32 %146, ptr %152, align 4, !tbaa !24
  %153 = load ptr, ptr %5, align 8, !tbaa !22
  %154 = getelementptr inbounds nuw %struct.DedotContext, ptr %153, i32 0, i32 6
  %155 = load ptr, ptr %154, align 8, !tbaa !62
  %156 = getelementptr inbounds nuw %struct.AVPixFmtDescriptor, ptr %155, i32 0, i32 3
  %157 = load i8, ptr %156, align 2, !tbaa !79
  %158 = call i1 @llvm.is.constant.i8(i8 %157)
  br i1 %158, label %172, label %159

159:                                              ; preds = %136
  %160 = load ptr, ptr %6, align 8, !tbaa !28
  %161 = getelementptr inbounds nuw %struct.AVFilterLink, ptr %160, i32 0, i32 7
  %162 = load i32, ptr %161, align 4, !tbaa !80
  %163 = sub nsw i32 0, %162
  %164 = load ptr, ptr %5, align 8, !tbaa !22
  %165 = getelementptr inbounds nuw %struct.DedotContext, ptr %164, i32 0, i32 6
  %166 = load ptr, ptr %165, align 8, !tbaa !62
  %167 = getelementptr inbounds nuw %struct.AVPixFmtDescriptor, ptr %166, i32 0, i32 3
  %168 = load i8, ptr %167, align 2, !tbaa !79
  %169 = zext i8 %168 to i32
  %170 = ashr i32 %163, %169
  %171 = sub nsw i32 0, %170
  br label %192

172:                                              ; preds = %136
  %173 = load ptr, ptr %6, align 8, !tbaa !28
  %174 = getelementptr inbounds nuw %struct.AVFilterLink, ptr %173, i32 0, i32 7
  %175 = load i32, ptr %174, align 4, !tbaa !80
  %176 = load ptr, ptr %5, align 8, !tbaa !22
  %177 = getelementptr inbounds nuw %struct.DedotContext, ptr %176, i32 0, i32 6
  %178 = load ptr, ptr %177, align 8, !tbaa !62
  %179 = getelementptr inbounds nuw %struct.AVPixFmtDescriptor, ptr %178, i32 0, i32 3
  %180 = load i8, ptr %179, align 2, !tbaa !79
  %181 = zext i8 %180 to i32
  %182 = shl i32 1, %181
  %183 = add nsw i32 %175, %182
  %184 = sub nsw i32 %183, 1
  %185 = load ptr, ptr %5, align 8, !tbaa !22
  %186 = getelementptr inbounds nuw %struct.DedotContext, ptr %185, i32 0, i32 6
  %187 = load ptr, ptr %186, align 8, !tbaa !62
  %188 = getelementptr inbounds nuw %struct.AVPixFmtDescriptor, ptr %187, i32 0, i32 3
  %189 = load i8, ptr %188, align 2, !tbaa !79
  %190 = zext i8 %189 to i32
  %191 = ashr i32 %184, %190
  br label %192

192:                                              ; preds = %172, %159
  %193 = phi i32 [ %171, %159 ], [ %191, %172 ]
  %194 = load ptr, ptr %5, align 8, !tbaa !22
  %195 = getelementptr inbounds nuw %struct.DedotContext, ptr %194, i32 0, i32 17
  %196 = getelementptr inbounds [4 x i32], ptr %195, i64 0, i64 2
  store i32 %193, ptr %196, align 4, !tbaa !24
  %197 = load ptr, ptr %5, align 8, !tbaa !22
  %198 = getelementptr inbounds nuw %struct.DedotContext, ptr %197, i32 0, i32 17
  %199 = getelementptr inbounds [4 x i32], ptr %198, i64 0, i64 1
  store i32 %193, ptr %199, align 4, !tbaa !24
  %200 = load ptr, ptr %6, align 8, !tbaa !28
  %201 = getelementptr inbounds nuw %struct.AVFilterLink, ptr %200, i32 0, i32 7
  %202 = load i32, ptr %201, align 4, !tbaa !80
  %203 = load ptr, ptr %5, align 8, !tbaa !22
  %204 = getelementptr inbounds nuw %struct.DedotContext, ptr %203, i32 0, i32 17
  %205 = getelementptr inbounds [4 x i32], ptr %204, i64 0, i64 3
  store i32 %202, ptr %205, align 4, !tbaa !24
  %206 = load ptr, ptr %5, align 8, !tbaa !22
  %207 = getelementptr inbounds nuw %struct.DedotContext, ptr %206, i32 0, i32 17
  %208 = getelementptr inbounds [4 x i32], ptr %207, i64 0, i64 0
  store i32 %202, ptr %208, align 4, !tbaa !24
  %209 = load ptr, ptr %5, align 8, !tbaa !22
  %210 = getelementptr inbounds nuw %struct.DedotContext, ptr %209, i32 0, i32 7
  %211 = load i32, ptr %210, align 8, !tbaa !66
  %212 = icmp sle i32 %211, 8
  br i1 %212, label %213, label %218

213:                                              ; preds = %192
  %214 = load ptr, ptr %5, align 8, !tbaa !22
  %215 = getelementptr inbounds nuw %struct.DedotContext, ptr %214, i32 0, i32 19
  store ptr @dedotcrawl8, ptr %215, align 8, !tbaa !41
  %216 = load ptr, ptr %5, align 8, !tbaa !22
  %217 = getelementptr inbounds nuw %struct.DedotContext, ptr %216, i32 0, i32 20
  store ptr @derainbow8, ptr %217, align 8, !tbaa !45
  br label %223

218:                                              ; preds = %192
  %219 = load ptr, ptr %5, align 8, !tbaa !22
  %220 = getelementptr inbounds nuw %struct.DedotContext, ptr %219, i32 0, i32 19
  store ptr @dedotcrawl16, ptr %220, align 8, !tbaa !41
  %221 = load ptr, ptr %5, align 8, !tbaa !22
  %222 = getelementptr inbounds nuw %struct.DedotContext, ptr %221, i32 0, i32 20
  store ptr @derainbow16, ptr %222, align 8, !tbaa !45
  br label %223

223:                                              ; preds = %218, %213
  store i32 0, ptr %2, align 4
  store i32 1, ptr %7, align 4
  br label %224

224:                                              ; preds = %223, %29
  call void @llvm.lifetime.end.p0(i64 8, ptr %6) #7
  call void @llvm.lifetime.end.p0(i64 8, ptr %5) #7
  call void @llvm.lifetime.end.p0(i64 8, ptr %4) #7
  %225 = load i32, ptr %2, align 4
  ret i32 %225
}