; Function Attrs: nounwind uwtable
define internal range(i32 -558323010, 1) i32 @config_output(ptr noundef readonly captures(none) %0) #1 {
  %2 = load ptr, ptr %0, align 8, !tbaa !52
  %3 = getelementptr inbounds nuw i8, ptr %2, i64 72
  %4 = load ptr, ptr %3, align 8, !tbaa !4
  %5 = getelementptr inbounds nuw i8, ptr %2, i64 32
  %6 = load ptr, ptr %5, align 8, !tbaa !22
  %7 = load ptr, ptr %6, align 8, !tbaa !23
  %8 = getelementptr inbounds nuw i8, ptr %0, i64 36
  %9 = load i32, ptr %8, align 4, !tbaa !58
  %10 = tail call ptr @av_pix_fmt_desc_get(i32 noundef %9) #7
  %11 = getelementptr inbounds nuw i8, ptr %4, i64 32
  store ptr %10, ptr %11, align 8, !tbaa !59
  %.not = icmp eq ptr %10, null
  br i1 %.not, label %73, label %.sink.split

.sink.split:                                      ; preds = %1
  %12 = load i32, ptr %8, align 4, !tbaa !58
  %13 = tail call i32 @av_pix_fmt_count_planes(i32 noundef %12) #7
  %14 = getelementptr inbounds nuw i8, ptr %4, i64 72
  store i32 %13, ptr %14, align 8, !tbaa !60
  %15 = load ptr, ptr %11, align 8, !tbaa !59
  %16 = getelementptr inbounds nuw i8, ptr %15, i64 40
  %17 = load i32, ptr %16, align 8, !tbaa !61
  %18 = getelementptr inbounds nuw i8, ptr %4, i64 40
  store i32 %17, ptr %18, align 8, !tbaa !63
  %notmask = shl nsw i32 -1, %17
  %19 = xor i32 %notmask, -1
  %20 = getelementptr inbounds nuw i8, ptr %4, i64 44
  store i32 %19, ptr %20, align 4, !tbaa !64
  %21 = getelementptr inbounds nuw i8, ptr %4, i64 12
  %22 = load float, ptr %21, align 4, !tbaa !65
  %23 = uitofp nneg i32 %19 to float
  %24 = fmul nsz float %22, %23
  %25 = fptosi float %24 to i32
  %26 = getelementptr inbounds nuw i8, ptr %4, i64 48
  store i32 %25, ptr %26, align 8, !tbaa !66
  %27 = getelementptr inbounds nuw i8, ptr %4, i64 16
  %28 = load float, ptr %27, align 8, !tbaa !67
  %29 = fmul nsz float %28, %23
  %30 = fptosi float %29 to i32
  %31 = getelementptr inbounds nuw i8, ptr %4, i64 52
  store i32 %30, ptr %31, align 4, !tbaa !68
  %32 = getelementptr inbounds nuw i8, ptr %4, i64 20
  %33 = load float, ptr %32, align 4, !tbaa !69
  %34 = fmul nsz float %33, %23
  %35 = fptosi float %34 to i32
  %36 = getelementptr inbounds nuw i8, ptr %4, i64 56
  store i32 %35, ptr %36, align 8, !tbaa !70
  %37 = getelementptr inbounds nuw i8, ptr %4, i64 24
  %38 = load float, ptr %37, align 8, !tbaa !71
  %39 = fmul nsz float %38, %23
  %40 = fptosi float %39 to i32
  %41 = getelementptr inbounds nuw i8, ptr %4, i64 60
  store i32 %40, ptr %41, align 4, !tbaa !72
  %42 = getelementptr inbounds nuw i8, ptr %7, i64 40
  %43 = load i32, ptr %42, align 8, !tbaa !73
  %44 = sub nsw i32 0, %43
  %45 = getelementptr inbounds nuw i8, ptr %15, i64 9
  %46 = load i8, ptr %45, align 1, !tbaa !74
  %47 = zext nneg i8 %46 to i32
  %48 = ashr i32 %44, %47
  %49 = sub nsw i32 0, %48
  %50 = getelementptr inbounds nuw i8, ptr %4, i64 76
  %51 = getelementptr inbounds nuw i8, ptr %4, i64 84
  store i32 %49, ptr %51, align 4, !tbaa !37
  %52 = getelementptr inbounds nuw i8, ptr %4, i64 80
  store i32 %49, ptr %52, align 4, !tbaa !37
  %53 = getelementptr inbounds nuw i8, ptr %7, i64 40
  %54 = load i32, ptr %53, align 8, !tbaa !73
  %55 = getelementptr inbounds nuw i8, ptr %4, i64 88
  store i32 %54, ptr %55, align 4, !tbaa !37
  store i32 %54, ptr %50, align 4, !tbaa !37
  %56 = getelementptr inbounds nuw i8, ptr %7, i64 44
  %57 = load i32, ptr %56, align 4, !tbaa !76
  %58 = sub nsw i32 0, %57
  %59 = getelementptr inbounds nuw i8, ptr %15, i64 10
  %60 = load i8, ptr %59, align 2, !tbaa !77
  %61 = zext nneg i8 %60 to i32
  %62 = ashr i32 %58, %61
  %63 = sub nsw i32 0, %62
  %64 = getelementptr inbounds nuw i8, ptr %4, i64 92
  %65 = getelementptr inbounds nuw i8, ptr %4, i64 100
  store i32 %63, ptr %65, align 4, !tbaa !37
  %66 = getelementptr inbounds nuw i8, ptr %4, i64 96
  store i32 %63, ptr %66, align 4, !tbaa !37
  %67 = getelementptr inbounds nuw i8, ptr %7, i64 44
  %68 = load i32, ptr %67, align 4, !tbaa !76
  %69 = getelementptr inbounds nuw i8, ptr %4, i64 104
  store i32 %68, ptr %69, align 4, !tbaa !37
  store i32 %68, ptr %64, align 4, !tbaa !37
  %70 = icmp slt i32 %17, 9
  %71 = getelementptr inbounds nuw i8, ptr %4, i64 152
  %72 = getelementptr inbounds nuw i8, ptr %4, i64 160
  %dedotcrawl8.dedotcrawl16 = select i1 %70, ptr @dedotcrawl8, ptr @dedotcrawl16
  %derainbow8.derainbow16 = select i1 %70, ptr @derainbow8, ptr @derainbow16
  store ptr %dedotcrawl8.dedotcrawl16, ptr %71, align 8, !tbaa !36
  store ptr %derainbow8.derainbow16, ptr %72, align 8, !tbaa !41
  br label %73

73:                                               ; preds = %.sink.split, %1
  %.0 = phi i32 [ -558323010, %1 ], [ 0, %.sink.split ]
  ret i32 %.0
}